target datalayout = "e-m:e-p270:32:32-p271:32:32-p272:64:64-i64:64-i128:128-f80:128-n8:16:32:64-S128"
target triple = "x86_64-pc-linux-gnu"

%struct.pmix_bfrops_globals_t = type { %struct.pmix_list_t, i8, i8, i64, i64, i8 }
%struct.pmix_list_t = type { %struct.pmix_object_t, %struct.pmix_list_item_t, i64 }
%struct.pmix_object_t = type { %union.pthread_mutex_t, ptr, i32, %struct.pmix_tma }
%union.pthread_mutex_t = type { %struct.__pthread_mutex_s }
%struct.__pthread_mutex_s = type { i32, i32, i32, i32, i32, i16, i16, %struct.__pthread_internal_list }
%struct.__pthread_internal_list = type { ptr, ptr }
%struct.pmix_tma = type { ptr, ptr, ptr, ptr, ptr, ptr, ptr, ptr }
%struct.pmix_list_item_t = type { %struct.pmix_object_t, ptr, ptr, i32 }
%struct.pmix_buffer_t = type { %struct.pmix_object_t, i8, ptr, ptr, ptr, i64, i64 }

@.str = private unnamed_addr constant [37 x i8] c"PMIX ERROR: %s in file %s at line %d\00", align 1
@.str.2 = private unnamed_addr constant [137 x i8] c"/home/dtcxzyw/WorkSpace/Projects/compilers/llvm-opt-benchmark/bench/openmpi/ompi/3rd-party/openpmix/src/mca/bfrops/base/bfrop_base_tma.h\00", align 1
@pmix_bfrops_globals = external global %struct.pmix_bfrops_globals_t, align 8

; Function Attrs: inlinehint nounwind uwtable
define internal ptr @pmix_tma_malloc(ptr noundef %0, i64 noundef %1) #3 {
  %3 = alloca ptr, align 8
  %4 = alloca ptr, align 8
  %5 = alloca i64, align 8
  store ptr %0, ptr %4, align 8, !tbaa !23
  store i64 %1, ptr %5, align 8, !tbaa !25
  %6 = load ptr, ptr %4, align 8, !tbaa !23
  %7 = icmp ne ptr null, %6
  br i1 %7, label %8, label %15

8:                                                ; preds = %2
  %9 = load ptr, ptr %4, align 8, !tbaa !23
  %10 = getelementptr inbounds nuw %struct.pmix_tma, ptr %9, i32 0, i32 0
  %11 = load ptr, ptr %10, align 8, !tbaa !235
  %12 = load ptr, ptr %4, align 8, !tbaa !23
  %13 = load i64, ptr %5, align 8, !tbaa !25
  %14 = call ptr %11(ptr noundef %12, i64 noundef %13)
  store ptr %14, ptr %3, align 8
  br label %18

15:                                               ; preds = %2
  %16 = load i64, ptr %5, align 8, !tbaa !25
  %17 = call noalias ptr @malloc(i64 noundef %16) #12
  store ptr %17, ptr %3, align 8
  br label %18

18:                                               ; preds = %15, %8
  %19 = load ptr, ptr %3, align 8
  ret ptr %19
}

; Function Attrs: inlinehint nounwind uwtable
define internal ptr @pmix_tma_realloc(ptr noundef %0, ptr noundef %1, i64 noundef %2) #3 {
  %4 = alloca ptr, align 8
  %5 = alloca ptr, align 8
  %6 = alloca ptr, align 8
  %7 = alloca i64, align 8
  store ptr %0, ptr %5, align 8, !tbaa !23
  store ptr %1, ptr %6, align 8, !tbaa !8
  store i64 %2, ptr %7, align 8, !tbaa !25
  %8 = load ptr, ptr %5, align 8, !tbaa !23
  %9 = icmp ne ptr null, %8
  br i1 %9, label %10, label %18

10:                                               ; preds = %3
  %11 = load ptr, ptr %5, align 8, !tbaa !23
  %12 = getelementptr inbounds nuw %struct.pmix_tma, ptr %11, i32 0, i32 2
  %13 = load ptr, ptr %12, align 8, !tbaa !234
  %14 = load ptr, ptr %5, align 8, !tbaa !23
  %15 = load ptr, ptr %6, align 8, !tbaa !8
  %16 = load i64, ptr %7, align 8, !tbaa !25
  %17 = call ptr %13(ptr noundef %14, ptr noundef %15, i64 noundef %16)
  store ptr %17, ptr %4, align 8
  br label %22

18:                                               ; preds = %3
  %19 = load ptr, ptr %6, align 8, !tbaa !8
  %20 = load i64, ptr %7, align 8, !tbaa !25
  %21 = call ptr @realloc(ptr noundef %19, i64 noundef %20) #13
  store ptr %21, ptr %4, align 8
  br label %22

22:                                               ; preds = %18, %10
  %23 = load ptr, ptr %4, align 8
  ret ptr %23
}

; Function Attrs: inlinehint nounwind uwtable
define internal ptr @pmix_bfrops_base_tma_buffer_extend(ptr noundef %0, i64 noundef %1, ptr noundef %2) #3 {
  %4 = alloca ptr, align 8
  %5 = alloca ptr, align 8
  %6 = alloca i64, align 8
  %7 = alloca ptr, align 8
  %8 = alloca i64, align 8
  %9 = alloca i64, align 8
  %10 = alloca i64, align 8
  %11 = alloca i64, align 8
  %12 = alloca i32, align 4
  store ptr %0, ptr %5, align 8, !tbaa !8
  store i64 %1, ptr %6, align 8, !tbaa !25
  store ptr %2, ptr %7, align 8, !tbaa !23
  call void @llvm.lifetime.start.p0(i64 8, ptr %8) #11
  call void @llvm.lifetime.start.p0(i64 8, ptr %9) #11
  call void @llvm.lifetime.start.p0(i64 8, ptr %10) #11
  call void @llvm.lifetime.start.p0(i64 8, ptr %11) #11
  %13 = load i64, ptr %6, align 8, !tbaa !25
  %14 = icmp eq i64 0, %13
  br i1 %14, label %15, label %19

15:                                               ; preds = %3
  %16 = load ptr, ptr %5, align 8, !tbaa !8
  %17 = getelementptr inbounds nuw %struct.pmix_buffer_t, ptr %16, i32 0, i32 3
  %18 = load ptr, ptr %17, align 8, !tbaa !31
  store ptr %18, ptr %4, align 8
  store i32 1, ptr %12, align 4
  br label %149

19:                                               ; preds = %3
  %20 = load ptr, ptr %5, align 8, !tbaa !8
  %21 = getelementptr inbounds nuw %struct.pmix_buffer_t, ptr %20, i32 0, i32 5
  %22 = load i64, ptr %21, align 8, !tbaa !230
  %23 = load ptr, ptr %5, align 8, !tbaa !8
  %24 = getelementptr inbounds nuw %struct.pmix_buffer_t, ptr %23, i32 0, i32 6
  %25 = load i64, ptr %24, align 8, !tbaa !30
  %26 = sub i64 %22, %25
  %27 = load i64, ptr %6, align 8, !tbaa !25
  %28 = icmp uge i64 %26, %27
  br i1 %28, label %29, label %33

29:                                               ; preds = %19
  %30 = load ptr, ptr %5, align 8, !tbaa !8
  %31 = getelementptr inbounds nuw %struct.pmix_buffer_t, ptr %30, i32 0, i32 3
  %32 = load ptr, ptr %31, align 8, !tbaa !31
  store ptr %32, ptr %4, align 8
  store i32 1, ptr %12, align 4
  br label %149

33:                                               ; preds = %19
  %34 = load ptr, ptr %5, align 8, !tbaa !8
  %35 = getelementptr inbounds nuw %struct.pmix_buffer_t, ptr %34, i32 0, i32 6
  %36 = load i64, ptr %35, align 8, !tbaa !30
  %37 = load i64, ptr %6, align 8, !tbaa !25
  %38 = add i64 %36, %37
  store i64 %38, ptr %8, align 8, !tbaa !25
  %39 = load i64, ptr %8, align 8, !tbaa !25
  %40 = load i64, ptr getelementptr inbounds nuw (%struct.pmix_bfrops_globals_t, ptr @pmix_bfrops_globals, i32 0, i32 4), align 8, !tbaa !231
  %41 = icmp uge i64 %39, %40
  br i1 %41, label %42, label %51

42:                                               ; preds = %33
  %43 = load i64, ptr %8, align 8, !tbaa !25
  %44 = load i64, ptr getelementptr inbounds nuw (%struct.pmix_bfrops_globals_t, ptr @pmix_bfrops_globals, i32 0, i32 4), align 8, !tbaa !231
  %45 = add i64 %43, %44
  %46 = sub i64 %45, 1
  %47 = load i64, ptr getelementptr inbounds nuw (%struct.pmix_bfrops_globals_t, ptr @pmix_bfrops_globals, i32 0, i32 4), align 8, !tbaa !231
  %48 = udiv i64 %46, %47
  %49 = load i64, ptr getelementptr inbounds nuw (%struct.pmix_bfrops_globals_t, ptr @pmix_bfrops_globals, i32 0, i32 4), align 8, !tbaa !231
  %50 = mul i64 %48, %49
  store i64 %50, ptr %9, align 8, !tbaa !25
  br label %68

51:                                               ; preds = %33
  %52 = load ptr, ptr %5, align 8, !tbaa !8
  %53 = getelementptr inbounds nuw %struct.pmix_buffer_t, ptr %52, i32 0, i32 5
  %54 = load i64, ptr %53, align 8, !tbaa !230
  store i64 %54, ptr %9, align 8, !tbaa !25
  %55 = load i64, ptr %9, align 8, !tbaa !25
  %56 = icmp eq i64 0, %55
  br i1 %56, label %57, label %59

57:                                               ; preds = %51
  %58 = load i64, ptr getelementptr inbounds nuw (%struct.pmix_bfrops_globals_t, ptr @pmix_bfrops_globals, i32 0, i32 3), align 8, !tbaa !232
  store i64 %58, ptr %9, align 8, !tbaa !25
  br label %59

59:                                               ; preds = %57, %51
  br label %60

60:                                               ; preds = %64, %59
  %61 = load i64, ptr %9, align 8, !tbaa !25
  %62 = load i64, ptr %8, align 8, !tbaa !25
  %63 = icmp ult i64 %61, %62
  br i1 %63, label %64, label %67

64:                                               ; preds = %60
  %65 = load i64, ptr %9, align 8, !tbaa !25
  %66 = shl i64 %65, 1
  store i64 %66, ptr %9, align 8, !tbaa !25
  br label %60, !llvm.loop !233

67:                                               ; preds = %60
  br label %68

68:                                               ; preds = %67, %42
  %69 = load ptr, ptr %5, align 8, !tbaa !8
  %70 = getelementptr inbounds nuw %struct.pmix_buffer_t, ptr %69, i32 0, i32 2
  %71 = load ptr, ptr %70, align 8, !tbaa !27
  %72 = icmp ne ptr null, %71
  br i1 %72, label %73, label %110

73:                                               ; preds = %68
  %74 = load ptr, ptr %5, align 8, !tbaa !8
  %75 = getelementptr inbounds nuw %struct.pmix_buffer_t, ptr %74, i32 0, i32 3
  %76 = load ptr, ptr %75, align 8, !tbaa !31
  %77 = load ptr, ptr %5, align 8, !tbaa !8
  %78 = getelementptr inbounds nuw %struct.pmix_buffer_t, ptr %77, i32 0, i32 2
  %79 = load ptr, ptr %78, align 8, !tbaa !27
  %80 = ptrtoint ptr %76 to i64
  %81 = ptrtoint ptr %79 to i64
  %82 = sub i64 %80, %81
  store i64 %82, ptr %10, align 8, !tbaa !25
  %83 = load ptr, ptr %5, align 8, !tbaa !8
  %84 = getelementptr inbounds nuw %struct.pmix_buffer_t, ptr %83, i32 0, i32 4
  %85 = load ptr, ptr %84, align 8, !tbaa !32
  %86 = load ptr, ptr %5, align 8, !tbaa !8
  %87 = getelementptr inbounds nuw %struct.pmix_buffer_t, ptr %86, i32 0, i32 2
  %88 = load ptr, ptr %87, align 8, !tbaa !27
  %89 = ptrtoint ptr %85 to i64
  %90 = ptrtoint ptr %88 to i64
  %91 = sub i64 %89, %90
  store i64 %91, ptr %11, align 8, !tbaa !25
  %92 = load ptr, ptr %7, align 8, !tbaa !23
  %93 = load ptr, ptr %5, align 8, !tbaa !8
  %94 = getelementptr inbounds nuw %struct.pmix_buffer_t, ptr %93, i32 0, i32 2
  %95 = load ptr, ptr %94, align 8, !tbaa !27
  %96 = load i64, ptr %9, align 8, !tbaa !25
  %97 = call ptr @pmix_tma_realloc(ptr noundef %92, ptr noundef %95, i64 noundef %96)
  %98 = load ptr, ptr %5, align 8, !tbaa !8
  %99 = getelementptr inbounds nuw %struct.pmix_buffer_t, ptr %98, i32 0, i32 2
  store ptr %97, ptr %99, align 8, !tbaa !27
  %100 = load ptr, ptr %5, align 8, !tbaa !8
  %101 = getelementptr inbounds nuw %struct.pmix_buffer_t, ptr %100, i32 0, i32 2
  %102 = load ptr, ptr %101, align 8, !tbaa !27
  %103 = load i64, ptr %10, align 8, !tbaa !25
  %104 = getelementptr inbounds nuw i8, ptr %102, i64 %103
  %105 = load i64, ptr %9, align 8, !tbaa !25
  %106 = load ptr, ptr %5, align 8, !tbaa !8
  %107 = getelementptr inbounds nuw %struct.pmix_buffer_t, ptr %106, i32 0, i32 5
  %108 = load i64, ptr %107, align 8, !tbaa !230
  %109 = sub i64 %105, %108
  call void @llvm.memset.p0.i64(ptr align 1 %104, i8 0, i64 %109, i1 false)
  br label %122

110:                                              ; preds = %68
  store i64 0, ptr %10, align 8, !tbaa !25
  store i64 0, ptr %11, align 8, !tbaa !25
  %111 = load ptr, ptr %5, align 8, !tbaa !8
  %112 = getelementptr inbounds nuw %struct.pmix_buffer_t, ptr %111, i32 0, i32 6
  store i64 0, ptr %112, align 8, !tbaa !30
  %113 = load ptr, ptr %7, align 8, !tbaa !23
  %114 = load i64, ptr %9, align 8, !tbaa !25
  %115 = call ptr @pmix_tma_malloc(ptr noundef %113, i64 noundef %114)
  %116 = load ptr, ptr %5, align 8, !tbaa !8
  %117 = getelementptr inbounds nuw %struct.pmix_buffer_t, ptr %116, i32 0, i32 2
  store ptr %115, ptr %117, align 8, !tbaa !27
  %118 = load ptr, ptr %5, align 8, !tbaa !8
  %119 = getelementptr inbounds nuw %struct.pmix_buffer_t, ptr %118, i32 0, i32 2
  %120 = load ptr, ptr %119, align 8, !tbaa !27
  %121 = load i64, ptr %9, align 8, !tbaa !25
  call void @llvm.memset.p0.i64(ptr align 1 %120, i8 0, i64 %121, i1 false)
  br label %122

122:                                              ; preds = %110, %73
  %123 = load ptr, ptr %5, align 8, !tbaa !8
  %124 = getelementptr inbounds nuw %struct.pmix_buffer_t, ptr %123, i32 0, i32 2
  %125 = load ptr, ptr %124, align 8, !tbaa !27
  %126 = icmp eq ptr null, %125
  br i1 %126, label %127, label %128

127:                                              ; preds = %122
  store ptr null, ptr %4, align 8
  store i32 1, ptr %12, align 4
  br label %149

128:                                              ; preds = %122
  %129 = load ptr, ptr %5, align 8, !tbaa !8
  %130 = getelementptr inbounds nuw %struct.pmix_buffer_t, ptr %129, i32 0, i32 2
  %131 = load ptr, ptr %130, align 8, !tbaa !27
  %132 = load i64, ptr %10, align 8, !tbaa !25
  %133 = getelementptr inbounds nuw i8, ptr %131, i64 %132
  %134 = load ptr, ptr %5, align 8, !tbaa !8
  %135 = getelementptr inbounds nuw %struct.pmix_buffer_t, ptr %134, i32 0, i32 3
  store ptr %133, ptr %135, align 8, !tbaa !31
  %136 = load ptr, ptr %5, align 8, !tbaa !8
  %137 = getelementptr inbounds nuw %struct.pmix_buffer_t, ptr %136, i32 0, i32 2
  %138 = load ptr, ptr %137, align 8, !tbaa !27
  %139 = load i64, ptr %11, align 8, !tbaa !25
  %140 = getelementptr inbounds nuw i8, ptr %138, i64 %139
  %141 = load ptr, ptr %5, align 8, !tbaa !8
  %142 = getelementptr inbounds nuw %struct.pmix_buffer_t, ptr %141, i32 0, i32 4
  store ptr %140, ptr %142, align 8, !tbaa !32
  %143 = load i64, ptr %9, align 8, !tbaa !25
  %144 = load ptr, ptr %5, align 8, !tbaa !8
  %145 = getelementptr inbounds nuw %struct.pmix_buffer_t, ptr %144, i32 0, i32 5
  store i64 %143, ptr %145, align 8, !tbaa !230
  %146 = load ptr, ptr %5, align 8, !tbaa !8
  %147 = getelementptr inbounds nuw %struct.pmix_buffer_t, ptr %146, i32 0, i32 3
  %148 = load ptr, ptr %147, align 8, !tbaa !31
  store ptr %148, ptr %4, align 8
  store i32 1, ptr %12, align 4
  br label %149

149:                                              ; preds = %128, %127, %29, %15
  call void @llvm.lifetime.end.p0(i64 8, ptr %11) #11
  call void @llvm.lifetime.end.p0(i64 8, ptr %10) #11
  call void @llvm.lifetime.end.p0(i64 8, ptr %9) #11
  call void @llvm.lifetime.end.p0(i64 8, ptr %8) #11
  %150 = load ptr, ptr %4, align 8
  ret ptr %150
}

; Function Attrs: inlinehint nounwind uwtable
define internal i32 @pmix_bfrops_base_tma_copy_payload(ptr noundef %0, ptr noundef %1, ptr noundef %2) #3 {
  %4 = alloca i32, align 4
  %5 = alloca ptr, align 8
  %6 = alloca ptr, align 8
  %7 = alloca ptr, align 8
  %8 = alloca i64, align 8
  %9 = alloca ptr, align 8
  %10 = alloca i32, align 4
  store ptr %0, ptr %5, align 8, !tbaa !8
  store ptr %1, ptr %6, align 8, !tbaa !8
  store ptr %2, ptr %7, align 8, !tbaa !23
  call void @llvm.lifetime.start.p0(i64 8, ptr %8) #11
  store i64 0, ptr %8, align 8, !tbaa !25
  call void @llvm.lifetime.start.p0(i64 8, ptr %9) #11
  %11 = load ptr, ptr %5, align 8, !tbaa !8
  %12 = getelementptr inbounds nuw %struct.pmix_buffer_t, ptr %11, i32 0, i32 2
  %13 = load ptr, ptr %12, align 8, !tbaa !27
  %14 = icmp eq ptr null, %13
  br i1 %14, label %15, label %21

15:                                               ; preds = %3
  %16 = load ptr, ptr %6, align 8, !tbaa !8
  %17 = getelementptr inbounds nuw %struct.pmix_buffer_t, ptr %16, i32 0, i32 1
  %18 = load i8, ptr %17, align 8, !tbaa !29
  %19 = load ptr, ptr %5, align 8, !tbaa !8
  %20 = getelementptr inbounds nuw %struct.pmix_buffer_t, ptr %19, i32 0, i32 1
  store i8 %18, ptr %20, align 8, !tbaa !29
  br label %43

21:                                               ; preds = %3
  %22 = load ptr, ptr %5, align 8, !tbaa !8
  %23 = getelementptr inbounds nuw %struct.pmix_buffer_t, ptr %22, i32 0, i32 1
  %24 = load i8, ptr %23, align 8, !tbaa !29
  %25 = zext i8 %24 to i32
  %26 = load ptr, ptr %6, align 8, !tbaa !8
  %27 = getelementptr inbounds nuw %struct.pmix_buffer_t, ptr %26, i32 0, i32 1
  %28 = load i8, ptr %27, align 8, !tbaa !29
  %29 = zext i8 %28 to i32
  %30 = icmp ne i32 %25, %29
  %31 = xor i1 %30, true
  %32 = xor i1 %31, true
  %33 = zext i1 %32 to i32
  %34 = sext i32 %33 to i64
  %35 = call i64 @llvm.expect.i64(i64 %34, i64 0)
  %36 = icmp ne i64 %35, 0
  br i1 %36, label %37, label %42

37:                                               ; preds = %21
  br label %38

38:                                               ; preds = %37
  %39 = call ptr @PMIx_Error_string(i32 noundef -27)
  call void (i32, ptr, ...) @pmix_output(i32 noundef 0, ptr noundef @.str, ptr noundef %39, ptr noundef @.str.2, i32 noundef 124)
  br label %40

40:                                               ; preds = %38
  br label %41

41:                                               ; preds = %40
  store i32 -27, ptr %4, align 4
  store i32 1, ptr %10, align 4
  br label %93

42:                                               ; preds = %21
  br label %43

43:                                               ; preds = %42, %15
  %44 = load ptr, ptr %6, align 8, !tbaa !8
  %45 = getelementptr inbounds nuw %struct.pmix_buffer_t, ptr %44, i32 0, i32 6
  %46 = load i64, ptr %45, align 8, !tbaa !30
  %47 = icmp eq i64 0, %46
  br i1 %47, label %56, label %48

48:                                               ; preds = %43
  %49 = load ptr, ptr %6, align 8, !tbaa !8
  %50 = getelementptr inbounds nuw %struct.pmix_buffer_t, ptr %49, i32 0, i32 3
  %51 = load ptr, ptr %50, align 8, !tbaa !31
  %52 = load ptr, ptr %6, align 8, !tbaa !8
  %53 = getelementptr inbounds nuw %struct.pmix_buffer_t, ptr %52, i32 0, i32 4
  %54 = load ptr, ptr %53, align 8, !tbaa !32
  %55 = icmp eq ptr %51, %54
  br i1 %55, label %56, label %57

56:                                               ; preds = %48, %43
  store i32 0, ptr %4, align 4
  store i32 1, ptr %10, align 4
  br label %93

57:                                               ; preds = %48
  %58 = load ptr, ptr %6, align 8, !tbaa !8
  %59 = getelementptr inbounds nuw %struct.pmix_buffer_t, ptr %58, i32 0, i32 3
  %60 = load ptr, ptr %59, align 8, !tbaa !31
  %61 = load ptr, ptr %6, align 8, !tbaa !8
  %62 = getelementptr inbounds nuw %struct.pmix_buffer_t, ptr %61, i32 0, i32 4
  %63 = load ptr, ptr %62, align 8, !tbaa !32
  %64 = ptrtoint ptr %60 to i64
  %65 = ptrtoint ptr %63 to i64
  %66 = sub i64 %64, %65
  store i64 %66, ptr %8, align 8, !tbaa !25
  %67 = load ptr, ptr %5, align 8, !tbaa !8
  %68 = load i64, ptr %8, align 8, !tbaa !25
  %69 = load ptr, ptr %7, align 8, !tbaa !23
  %70 = call ptr @pmix_bfrops_base_tma_buffer_extend(ptr noundef %67, i64 noundef %68, ptr noundef %69)
  store ptr %70, ptr %9, align 8, !tbaa !33
  %71 = icmp eq ptr null, %70
  br i1 %71, label %72, label %77

72:                                               ; preds = %57
  br label %73

73:                                               ; preds = %72
  %74 = call ptr @PMIx_Error_string(i32 noundef -29)
  call void (i32, ptr, ...) @pmix_output(i32 noundef 0, ptr noundef @.str, ptr noundef %74, ptr noundef @.str.2, i32 noundef 137)
  br label %75

75:                                               ; preds = %73
  br label %76

76:                                               ; preds = %75
  store i32 -29, ptr %4, align 4
  store i32 1, ptr %10, align 4
  br label %93

77:                                               ; preds = %57
  %78 = load ptr, ptr %9, align 8, !tbaa !33
  %79 = load ptr, ptr %6, align 8, !tbaa !8
  %80 = getelementptr inbounds nuw %struct.pmix_buffer_t, ptr %79, i32 0, i32 4
  %81 = load ptr, ptr %80, align 8, !tbaa !32
  %82 = load i64, ptr %8, align 8, !tbaa !25
  call void @llvm.memcpy.p0.p0.i64(ptr align 1 %78, ptr align 1 %81, i64 %82, i1 false)
  %83 = load i64, ptr %8, align 8, !tbaa !25
  %84 = load ptr, ptr %5, align 8, !tbaa !8
  %85 = getelementptr inbounds nuw %struct.pmix_buffer_t, ptr %84, i32 0, i32 6
  %86 = load i64, ptr %85, align 8, !tbaa !30
  %87 = add i64 %86, %83
  store i64 %87, ptr %85, align 8, !tbaa !30
  %88 = load i64, ptr %8, align 8, !tbaa !25
  %89 = load ptr, ptr %5, align 8, !tbaa !8
  %90 = getelementptr inbounds nuw %struct.pmix_buffer_t, ptr %89, i32 0, i32 3
  %91 = load ptr, ptr %90, align 8, !tbaa !31
  %92 = getelementptr inbounds nuw i8, ptr %91, i64 %88
  store ptr %92, ptr %90, align 8, !tbaa !31
  store i32 0, ptr %4, align 4
  store i32 1, ptr %10, align 4
  br label %93

93:                                               ; preds = %77, %76, %56, %41
  call void @llvm.lifetime.end.p0(i64 8, ptr %9) #11
  call void @llvm.lifetime.end.p0(i64 8, ptr %8) #11
  %94 = load i32, ptr %4, align 4
  ret i32 %94
}