; Function Attrs: inlinehint nounwind uwtable
define internal fastcc range(i32 -29, 1) i32 @pmix_bfrops_base_tma_copy_payload(ptr noundef captures(none) %0, ptr noundef readonly captures(none) %1) unnamed_addr #3 {
  %3 = getelementptr inbounds nuw i8, ptr %0, i64 128
  %4 = load ptr, ptr %3, align 8, !tbaa !20
  %5 = icmp eq ptr %4, null
  br i1 %5, label %6, label %10

6:                                                ; preds = %2
  %7 = getelementptr inbounds nuw i8, ptr %1, i64 120
  %8 = load i8, ptr %7, align 8, !tbaa !23
  %9 = getelementptr inbounds nuw i8, ptr %0, i64 120
  store i8 %8, ptr %9, align 8, !tbaa !23
  br label %17

10:                                               ; preds = %2
  %11 = getelementptr inbounds nuw i8, ptr %0, i64 120
  %12 = load i8, ptr %11, align 8, !tbaa !23
  %13 = getelementptr inbounds nuw i8, ptr %1, i64 120
  %14 = load i8, ptr %13, align 8, !tbaa !23
  %.not = icmp eq i8 %12, %14
  br i1 %.not, label %17, label %15, !prof !13

15:                                               ; preds = %10
  %16 = tail call ptr @PMIx_Error_string(i32 noundef -27) #23
  tail call void (i32, ptr, ...) @pmix_output(i32 noundef 0, ptr noundef nonnull @.str, ptr noundef %16, ptr noundef nonnull @.str.2, i32 noundef 124) #23
  br label %84

17:                                               ; preds = %10, %6
  %18 = getelementptr inbounds nuw i8, ptr %1, i64 160
  %19 = load i64, ptr %18, align 8, !tbaa !24
  %20 = icmp eq i64 %19, 0
  br i1 %20, label %84, label %21

21:                                               ; preds = %17
  %22 = getelementptr inbounds nuw i8, ptr %1, i64 136
  %23 = load ptr, ptr %22, align 8, !tbaa !25
  %24 = getelementptr inbounds nuw i8, ptr %1, i64 144
  %25 = load ptr, ptr %24, align 8, !tbaa !26
  %26 = icmp eq ptr %23, %25
  br i1 %26, label %84, label %27

27:                                               ; preds = %21
  %28 = ptrtoint ptr %23 to i64
  %29 = ptrtoint ptr %25 to i64
  %30 = sub i64 %28, %29
  %31 = getelementptr inbounds nuw i8, ptr %0, i64 152
  %32 = load i64, ptr %31, align 8, !tbaa !27
  %33 = getelementptr inbounds nuw i8, ptr %0, i64 160
  %34 = load i64, ptr %33, align 8, !tbaa !24
  %35 = sub i64 %32, %34
  %.not.i = icmp ult i64 %35, %30
  br i1 %.not.i, label %39, label %36

36:                                               ; preds = %27
  %37 = getelementptr inbounds nuw i8, ptr %0, i64 136
  %38 = load ptr, ptr %37, align 8, !tbaa !25
  br label %pmix_bfrops_base_tma_buffer_extend.exit

39:                                               ; preds = %27
  %40 = add i64 %34, %30
  %41 = load i64, ptr getelementptr inbounds nuw (i8, ptr @pmix_bfrops_globals, i64 288), align 8, !tbaa !28
  %.not54.i = icmp ult i64 %40, %41
  br i1 %.not54.i, label %47, label %42

42:                                               ; preds = %39
  %43 = add i64 %41, %40
  %.fr55.i = freeze i64 %43
  %44 = add i64 %.fr55.i, -1
  %45 = urem i64 %44, %41
  %46 = sub nuw i64 %44, %45
  br label %.loopexit.i

47:                                               ; preds = %39
  %48 = icmp eq i64 %32, 0
  %49 = load i64, ptr getelementptr inbounds nuw (i8, ptr @pmix_bfrops_globals, i64 280), align 8
  %spec.select.i = select i1 %48, i64 %49, i64 %32
  br label %50

50:                                               ; preds = %50, %47
  %.2.i = phi i64 [ %spec.select.i, %47 ], [ %52, %50 ]
  %51 = icmp ult i64 %.2.i, %40
  %52 = shl i64 %.2.i, 1
  br i1 %51, label %50, label %.loopexit.i, !llvm.loop !34

.loopexit.i:                                      ; preds = %50, %42
  %.045.i = phi i64 [ %46, %42 ], [ %.2.i, %50 ]
  br i1 %5, label %67, label %53

53:                                               ; preds = %.loopexit.i
  %54 = getelementptr inbounds nuw i8, ptr %0, i64 136
  %55 = load ptr, ptr %54, align 8, !tbaa !25
  %56 = ptrtoint ptr %55 to i64
  %57 = ptrtoint ptr %4 to i64
  %58 = sub i64 %56, %57
  %59 = getelementptr inbounds nuw i8, ptr %0, i64 144
  %60 = load ptr, ptr %59, align 8, !tbaa !26
  %61 = ptrtoint ptr %60 to i64
  %62 = sub i64 %61, %57
  %63 = tail call noalias noundef ptr @realloc(ptr noundef nonnull %4, i64 noundef %.045.i) #24
  %64 = getelementptr inbounds nuw i8, ptr %63, i64 %58
  %65 = load i64, ptr %31, align 8, !tbaa !27
  %66 = sub i64 %.045.i, %65
  tail call void @llvm.memset.p0.i64(ptr align 1 %64, i8 0, i64 %66, i1 false)
  br label %68

67:                                               ; preds = %.loopexit.i
  store i64 0, ptr %33, align 8, !tbaa !24
  %calloc.i = tail call ptr @calloc(i64 1, i64 %.045.i)
  br label %68

68:                                               ; preds = %67, %53
  %.sink.i = phi ptr [ %calloc.i, %67 ], [ %63, %53 ]
  %.044.i = phi i64 [ 0, %67 ], [ %58, %53 ]
  %.0.i = phi i64 [ 0, %67 ], [ %62, %53 ]
  store ptr %.sink.i, ptr %3, align 8, !tbaa !20
  %69 = icmp eq ptr %.sink.i, null
  br i1 %69, label %pmix_bfrops_base_tma_buffer_extend.exit.thread, label %70

70:                                               ; preds = %68
  %71 = getelementptr inbounds nuw i8, ptr %.sink.i, i64 %.044.i
  %72 = getelementptr inbounds nuw i8, ptr %0, i64 136
  store ptr %71, ptr %72, align 8, !tbaa !25
  %73 = getelementptr inbounds nuw i8, ptr %.sink.i, i64 %.0.i
  %74 = getelementptr inbounds nuw i8, ptr %0, i64 144
  store ptr %73, ptr %74, align 8, !tbaa !26
  store i64 %.045.i, ptr %31, align 8, !tbaa !27
  br label %pmix_bfrops_base_tma_buffer_extend.exit

pmix_bfrops_base_tma_buffer_extend.exit:          ; preds = %36, %70
  %.046.i = phi ptr [ %38, %36 ], [ %71, %70 ]
  %75 = icmp eq ptr %.046.i, null
  br i1 %75, label %pmix_bfrops_base_tma_buffer_extend.exit.thread, label %77

pmix_bfrops_base_tma_buffer_extend.exit.thread:   ; preds = %68, %pmix_bfrops_base_tma_buffer_extend.exit
  %76 = tail call ptr @PMIx_Error_string(i32 noundef -29) #23
  tail call void (i32, ptr, ...) @pmix_output(i32 noundef 0, ptr noundef nonnull @.str, ptr noundef %76, ptr noundef nonnull @.str.2, i32 noundef 137) #23
  br label %84

77:                                               ; preds = %pmix_bfrops_base_tma_buffer_extend.exit
  %78 = load ptr, ptr %24, align 8, !tbaa !26
  tail call void @llvm.memcpy.p0.p0.i64(ptr nonnull align 1 %.046.i, ptr align 1 %78, i64 %30, i1 false)
  %79 = load i64, ptr %33, align 8, !tbaa !24
  %80 = add i64 %79, %30
  store i64 %80, ptr %33, align 8, !tbaa !24
  %81 = getelementptr inbounds nuw i8, ptr %0, i64 136
  %82 = load ptr, ptr %81, align 8, !tbaa !25
  %83 = getelementptr inbounds nuw i8, ptr %82, i64 %30
  store ptr %83, ptr %81, align 8, !tbaa !25
  br label %84

84:                                               ; preds = %17, %21, %77, %pmix_bfrops_base_tma_buffer_extend.exit.thread, %15
  %.0 = phi i32 [ -29, %pmix_bfrops_base_tma_buffer_extend.exit.thread ], [ 0, %77 ], [ -27, %15 ], [ 0, %21 ], [ 0, %17 ]
  ret i32 %.0
}